target datalayout = "e-m:e-p270:32:32-p271:32:32-p272:64:64-i64:64-i128:128-f80:128-n8:16:32:64-S128"
target triple = "x86_64-pc-linux-gnu"

%"class.g2o::HyperGraphElementAction" = type { ptr, %"class.std::__cxx11::basic_string", %"class.std::__cxx11::basic_string" }
%"class.std::__cxx11::basic_string" = type { %"struct.std::__cxx11::basic_string<char>::_Alloc_hider", i64, %union.anon }
%"struct.std::__cxx11::basic_string<char>::_Alloc_hider" = type { ptr }
%union.anon = type { i64, [8 x i8] }
%"class.g2o::DrawAction" = type { %"class.g2o::HyperGraphElementAction", ptr, ptr, ptr }
%"class.g2o::HyperGraph::Data" = type { %"struct.g2o::HyperGraph::HyperGraphElement", ptr, ptr }
%"struct.g2o::HyperGraph::HyperGraphElement" = type { ptr }

; Function Attrs: inlinehint mustprogress nounwind uwtable
define linkonce_odr noundef ptr @_ZN3g2o10HyperGraph4Data4nextEv(ptr noundef nonnull align 8 dereferenceable(24) %0) #9 comdat align 2 {
  %2 = alloca ptr, align 8
  store ptr %0, ptr %2, align 8, !tbaa !138
  %3 = load ptr, ptr %2, align 8
  %4 = getelementptr inbounds nuw %"class.g2o::HyperGraph::Data", ptr %3, i32 0, i32 1
  %5 = load ptr, ptr %4, align 8, !tbaa !141
  ret ptr %5
}

; Function Attrs: mustprogress uwtable
define void @_ZN3g2o10DrawAction12drawUserDataEPNS_10HyperGraph4DataEPNS_23HyperGraphElementAction10ParametersE(ptr noundef nonnull align 8 dereferenceable(96) %0, ptr noundef %1, ptr noundef %2) #6 align 2 {
  %4 = alloca ptr, align 8
  %5 = alloca ptr, align 8
  %6 = alloca ptr, align 8
  store ptr %0, ptr %4, align 8, !tbaa !102
  store ptr %1, ptr %5, align 8, !tbaa !138
  store ptr %2, ptr %6, align 8, !tbaa !35
  %7 = load ptr, ptr %4, align 8
  br label %8

8:                                                ; preds = %17, %3
  %9 = load ptr, ptr %5, align 8, !tbaa !138
  %10 = icmp ne ptr %9, null
  br i1 %10, label %11, label %15

11:                                               ; preds = %8
  %12 = getelementptr inbounds nuw %"class.g2o::DrawAction", ptr %7, i32 0, i32 3
  %13 = load ptr, ptr %12, align 8, !tbaa !111
  %14 = icmp ne ptr %13, null
  br label %15

15:                                               ; preds = %11, %8
  %16 = phi i1 [ false, %8 ], [ %14, %11 ]
  br i1 %16, label %17, label %28

17:                                               ; preds = %15
  %18 = getelementptr inbounds nuw %"class.g2o::DrawAction", ptr %7, i32 0, i32 3
  %19 = load ptr, ptr %18, align 8, !tbaa !111
  %20 = load ptr, ptr %5, align 8, !tbaa !138
  %21 = load ptr, ptr %6, align 8, !tbaa !35
  %22 = load ptr, ptr %19, align 8, !tbaa !26
  %23 = getelementptr inbounds ptr, ptr %22, i64 0
  %24 = load ptr, ptr %23, align 8
  %25 = call noundef ptr %24(ptr noundef nonnull align 8 dereferenceable(72) %19, ptr noundef %20, ptr noundef %21)
  %26 = load ptr, ptr %5, align 8, !tbaa !138
  %27 = call noundef ptr @_ZN3g2o10HyperGraph4Data4nextEv(ptr noundef nonnull align 8 dereferenceable(24) %26)
  store ptr %27, ptr %5, align 8, !tbaa !138
  br label %8, !llvm.loop !140

28:                                               ; preds = %15
  ret void
}