; Function Attrs: mustprogress uwtable
define void @_ZN3g2o10DrawAction12drawUserDataEPNS_10HyperGraph4DataEPNS_23HyperGraphElementAction10ParametersE(ptr noundef nonnull readonly align 8 captures(none) dereferenceable(96) %0, ptr noundef %1, ptr noundef %2) local_unnamed_addr #9 align 2 {
  %4 = getelementptr inbounds nuw i8, ptr %0, i64 88
  %.not7 = icmp eq ptr %1, null
  br i1 %.not7, label %.critedge, label %.lr.ph

.lr.ph:                                           ; preds = %3, %6
  %.08 = phi ptr [ %11, %6 ], [ %1, %3 ]
  %5 = load ptr, ptr %4, align 8, !tbaa !77
  %.not6 = icmp eq ptr %5, null
  br i1 %.not6, label %.critedge, label %6

6:                                                ; preds = %.lr.ph
  %7 = load ptr, ptr %5, align 8, !tbaa !14
  %8 = load ptr, ptr %7, align 8
  %9 = tail call noundef ptr %8(ptr noundef nonnull align 8 dereferenceable(72) %5, ptr noundef nonnull %.08, ptr noundef %2)
  %10 = getelementptr inbounds nuw i8, ptr %.08, i64 8
  %11 = load ptr, ptr %10, align 8, !tbaa !103
  %.not = icmp eq ptr %11, null
  br i1 %.not, label %.critedge, label %.lr.ph, !llvm.loop !108

.critedge:                                        ; preds = %.lr.ph, %6, %3
  ret void
}